; Function Attrs: mustprogress nofree norecurse nosync nounwind willreturn memory(none) uwtable
define dso_local range(i32 1, 5) i32 @runelen(i32 noundef %0) local_unnamed_addr #1 {
  %2 = icmp ult i32 %0, 128
  br i1 %2, label %runetochar.exit, label %3

3:                                                ; preds = %1
  %4 = icmp ult i32 %0, 2048
  br i1 %4, label %runetochar.exit, label %5

5:                                                ; preds = %3
  %6 = icmp ugt i32 %0, 1114111
  %narrow.i = select i1 %6, i32 65533, i32 %0
  %7 = and i32 %narrow.i, 2095104
  %or.cond.i = icmp eq i32 %7, 55296
  %8 = icmp samesign ult i32 %narrow.i, 65536
  %9 = select i1 %or.cond.i, i1 true, i1 %8
  %. = select i1 %9, i32 3, i32 4
  br label %runetochar.exit

runetochar.exit:                                  ; preds = %5, %3, %1
  %.0.i = phi i32 [ 1, %1 ], [ 2, %3 ], [ %., %5 ]
  ret i32 %.0.i
}